; ModuleID = 'source-C-CXX/56/285.c'
source_filename = "source-C-CXX/56/285.c"
target datalayout = "e-m:e-p270:32:32-p271:32:32-p272:64:64-i64:64-f80:128-n8:16:32:64-S128"
target triple = "x86_64-pc-linux-gnu"

@.str.2 = private unnamed_addr constant [4 x i8] c"%d\0A\00", align 1

; Function Attrs: nofree nounwind sspstrong uwtable
define dso_local i32 @f(i8* nocapture readonly %0, i32 %1) local_unnamed_addr #0 {
  %3 = add nsw i32 %1, -1
  %4 = sext i32 %3 to i64
  %5 = getelementptr inbounds i8, i8* %0, i64 %4
  %6 = load i8, i8* %5, align 1, !tbaa !5
  %7 = icmp eq i8 %6, 114
  br i1 %7, label %8, label %28

8:                                                ; preds = %2
  %9 = add i32 %1, -2
  %10 = sext i32 %9 to i64
  %11 = getelementptr inbounds i8, i8* %0, i64 %10
  %12 = load i8, i8* %11, align 1, !tbaa !5
  %13 = icmp eq i8 %12, 101
  %14 = icmp sgt i32 %1, 2
  %15 = select i1 %13, i1 %14, i1 false
  br i1 %15, label %16, label %49

16:                                               ; preds = %8
  %17 = zext i32 %9 to i64
  br label %18

18:                                               ; preds = %16, %18
  %19 = phi i64 [ 0, %16 ], [ %24, %18 ]
  %20 = getelementptr inbounds i8, i8* %0, i64 %19
  %21 = load i8, i8* %20, align 1, !tbaa !5
  %22 = sext i8 %21 to i32
  %23 = tail call i32 @putchar(i32 %22)
  %24 = add nuw nsw i64 %19, 1
  %25 = icmp eq i64 %24, %17
  br i1 %25, label %26, label %18, !llvm.loop !8

26:                                               ; preds = %18
  %27 = load i8, i8* %5, align 1, !tbaa !5
  br label %28

28:                                               ; preds = %26, %2
  %29 = phi i8 [ %6, %2 ], [ %27, %26 ]
  %30 = icmp eq i8 %29, 121
  br i1 %30, label %31, label %49

31:                                               ; preds = %28
  %32 = add i32 %1, -2
  %33 = sext i32 %32 to i64
  %34 = getelementptr inbounds i8, i8* %0, i64 %33
  %35 = load i8, i8* %34, align 1, !tbaa !5
  %36 = icmp eq i8 %35, 108
  %37 = icmp sgt i32 %1, 2
  %38 = select i1 %36, i1 %37, i1 false
  br i1 %38, label %39, label %49

39:                                               ; preds = %31
  %40 = zext i32 %32 to i64
  br label %41

41:                                               ; preds = %39, %41
  %42 = phi i64 [ 0, %39 ], [ %47, %41 ]
  %43 = getelementptr inbounds i8, i8* %0, i64 %42
  %44 = load i8, i8* %43, align 1, !tbaa !5
  %45 = sext i8 %44 to i32
  %46 = tail call i32 @putchar(i32 %45)
  %47 = add nuw nsw i64 %42, 1
  %48 = icmp eq i64 %47, %40
  br i1 %48, label %49, label %41, !llvm.loop !10

49:                                               ; preds = %41, %8, %31, %28
  %50 = add i32 %1, -3
  %51 = sext i32 %50 to i64
  %52 = getelementptr inbounds i8, i8* %0, i64 %51
  %53 = load i8, i8* %52, align 1, !tbaa !5
  %54 = icmp eq i8 %53, 105
  br i1 %54, label %55, label %76

55:                                               ; preds = %49
  %56 = add nsw i32 %1, -2
  %57 = sext i32 %56 to i64
  %58 = getelementptr inbounds i8, i8* %0, i64 %57
  %59 = load i8, i8* %58, align 1, !tbaa !5
  %60 = icmp eq i8 %59, 110
  br i1 %60, label %61, label %76

61:                                               ; preds = %55
  %62 = load i8, i8* %5, align 1, !tbaa !5
  %63 = icmp eq i8 %62, 103
  %64 = icmp sgt i32 %1, 3
  %65 = select i1 %63, i1 %64, i1 false
  br i1 %65, label %66, label %76

66:                                               ; preds = %61
  %67 = zext i32 %50 to i64
  br label %68

68:                                               ; preds = %66, %68
  %69 = phi i64 [ 0, %66 ], [ %74, %68 ]
  %70 = getelementptr inbounds i8, i8* %0, i64 %69
  %71 = load i8, i8* %70, align 1, !tbaa !5
  %72 = sext i8 %71 to i32
  %73 = tail call i32 @putchar(i32 %72)
  %74 = add nuw nsw i64 %69, 1
  %75 = icmp eq i64 %74, %67
  br i1 %75, label %76, label %68, !llvm.loop !11

76:                                               ; preds = %68, %61, %55, %49
  %77 = tail call i32 @putchar(i32 10)
  ret i32 0
}

; Function Attrs: argmemonly mustprogress nofree nosync nounwind willreturn
declare void @llvm.lifetime.start.p0i8(i64 immarg, i8* nocapture) #1

; Function Attrs: argmemonly mustprogress nofree nosync nounwind willreturn
declare void @llvm.lifetime.end.p0i8(i64 immarg, i8* nocapture) #1

; Function Attrs: nounwind sspstrong uwtable
define dso_local void @main() local_unnamed_addr #2 {
  %1 = alloca i32, align 4
  %2 = alloca [20 x i8], align 16
  %3 = bitcast i32* %1 to i8*
  call void @llvm.lifetime.start.p0i8(i64 4, i8* nonnull %3) #7
  %4 = call i32 (i8*, ...) @__isoc99_scanf(i8* getelementptr inbounds ([4 x i8], [4 x i8]* @.str.2, i64 0, i64 0), i32* nonnull %1)
  %5 = getelementptr inbounds [20 x i8], [20 x i8]* %2, i64 0, i64 0
  call void @llvm.lifetime.start.p0i8(i64 20, i8* nonnull %5) #7
  %6 = load i32, i32* %1, align 4, !tbaa !12
  %7 = icmp sgt i32 %6, 0
  br i1 %7, label %8, label %17

8:                                                ; preds = %0, %8
  %9 = phi i32 [ %14, %8 ], [ 0, %0 ]
  %10 = call i32 (i8*, ...) bitcast (i32 (...)* @gets to i32 (i8*, ...)*)(i8* nonnull %5) #7
  %11 = call i64 @strlen(i8* noundef nonnull %5) #8
  %12 = trunc i64 %11 to i32
  %13 = call i32 @f(i8* nonnull %5, i32 %12)
  %14 = add nuw nsw i32 %9, 1
  %15 = load i32, i32* %1, align 4, !tbaa !12
  %16 = icmp slt i32 %14, %15
  br i1 %16, label %8, label %17, !llvm.loop !14

17:                                               ; preds = %8, %0
  call void @llvm.lifetime.end.p0i8(i64 20, i8* nonnull %5) #7
  call void @llvm.lifetime.end.p0i8(i64 4, i8* nonnull %3) #7
  ret void
}

; Function Attrs: nofree nounwind
declare noundef i32 @__isoc99_scanf(i8* nocapture noundef readonly, ...) local_unnamed_addr #3

declare i32 @gets(...) local_unnamed_addr #4

; Function Attrs: argmemonly mustprogress nofree nounwind readonly willreturn
declare i64 @strlen(i8* nocapture) local_unnamed_addr #5

; Function Attrs: nofree nounwind
declare noundef i32 @putchar(i32 noundef) local_unnamed_addr #6


!llvm.module.flags = !{!0, !1, !2, !3}
!llvm.ident = !{!4}

!0 = !{i32 1, !"wchar_size", i32 4}
!1 = !{i32 7, !"PIC Level", i32 2}
!2 = !{i32 7, !"PIE Level", i32 2}
!3 = !{i32 7, !"uwtable", i32 1}
!4 = !{!"clang version 13.0.0"}
!5 = !{!6, !6, i64 0}
!6 = !{!"omnipotent char", !7, i64 0}
!7 = !{!"Simple C/C++ TBAA"}
!8 = distinct !{!8, !9}
!9 = !{!"llvm.loop.mustprogress"}
!10 = distinct !{!10, !9}
!11 = distinct !{!11, !9}
!12 = !{!13, !13, i64 0}
!13 = !{!"int", !6, i64 0}
!14 = distinct !{!14, !9}
